; Function Attrs: mustprogress uwtable
define hidden i64 @_ZNK7nanogui6Widget14preferred_sizeEP10NVGcontext(ptr noundef nonnull align 8 dereferenceable(140) %0, ptr noundef %1) unnamed_addr #0 align 2 {
  %3 = getelementptr inbounds i8, ptr %0, i64 32
  %4 = load ptr, ptr %3, align 8
  %.not = icmp eq ptr %4, null
  br i1 %.not, label %10, label %5

5:                                                ; preds = %2
  %6 = load ptr, ptr %4, align 8
  %7 = getelementptr inbounds i8, ptr %6, i64 24
  %8 = load ptr, ptr %7, align 8
  %9 = tail call i64 %8(ptr noundef nonnull align 8 dereferenceable(12) %4, ptr noundef %1, ptr noundef nonnull %0)
  br label %12

10:                                               ; preds = %2
  %11 = getelementptr inbounds i8, ptr %0, i64 48
  %.sroa.0.0.copyload = load i64, ptr %11, align 8
  br label %12

12:                                               ; preds = %10, %5
  %.sroa.0.0 = phi i64 [ %9, %5 ], [ %.sroa.0.0.copyload, %10 ]
  ret i64 %.sroa.0.0
}